target datalayout = "e-m:e-p270:32:32-p271:32:32-p272:64:64-i64:64-i128:128-f80:128-n8:16:32:64-S128"
target triple = "x86_64-pc-linux-gnu"

%struct.MemoryManager = type { ptr, ptr, ptr }
%struct.ManagedDictionary = type { i32, %struct.MemoryManager, ptr }

; Function Attrs: nounwind uwtable
define void @BrotliEncoderDestroyPreparedDictionary(ptr noundef %0) #0 {
  %2 = alloca ptr, align 8
  %3 = alloca ptr, align 8
  %4 = alloca i32, align 4
  store ptr %0, ptr %2, align 8, !tbaa !102
  call void @llvm.lifetime.start.p0(i64 8, ptr %3) #10
  %5 = load ptr, ptr %2, align 8, !tbaa !102
  store ptr %5, ptr %3, align 8, !tbaa !98
  %6 = load ptr, ptr %2, align 8, !tbaa !102
  %7 = icmp ne ptr %6, null
  br i1 %7, label %9, label %8

8:                                                ; preds = %1
  store i32 1, ptr %4, align 4
  br label %57

9:                                                ; preds = %1
  %10 = load ptr, ptr %3, align 8, !tbaa !98
  %11 = getelementptr inbounds nuw %struct.ManagedDictionary, ptr %10, i32 0, i32 0
  %12 = load i32, ptr %11, align 8, !tbaa !104
  %13 = icmp ne i32 %12, -558043678
  br i1 %13, label %14, label %15

14:                                               ; preds = %9
  store i32 1, ptr %4, align 4
  br label %57

15:                                               ; preds = %9
  %16 = load ptr, ptr %3, align 8, !tbaa !98
  %17 = getelementptr inbounds nuw %struct.ManagedDictionary, ptr %16, i32 0, i32 2
  %18 = load ptr, ptr %17, align 8, !tbaa !100
  %19 = icmp eq ptr %18, null
  br i1 %19, label %20, label %21

20:                                               ; preds = %15
  br label %53

21:                                               ; preds = %15
  %22 = load ptr, ptr %3, align 8, !tbaa !98
  %23 = getelementptr inbounds nuw %struct.ManagedDictionary, ptr %22, i32 0, i32 2
  %24 = load ptr, ptr %23, align 8, !tbaa !100
  %25 = load i32, ptr %24, align 4, !tbaa !8
  %26 = icmp eq i32 %25, -558043677
  br i1 %26, label %27, label %33

27:                                               ; preds = %21
  %28 = load ptr, ptr %3, align 8, !tbaa !98
  %29 = getelementptr inbounds nuw %struct.ManagedDictionary, ptr %28, i32 0, i32 1
  %30 = load ptr, ptr %3, align 8, !tbaa !98
  %31 = getelementptr inbounds nuw %struct.ManagedDictionary, ptr %30, i32 0, i32 2
  %32 = load ptr, ptr %31, align 8, !tbaa !100
  call void @DestroyPreparedDictionary(ptr noundef %29, ptr noundef %32)
  br label %52

33:                                               ; preds = %21
  %34 = load ptr, ptr %3, align 8, !tbaa !98
  %35 = getelementptr inbounds nuw %struct.ManagedDictionary, ptr %34, i32 0, i32 2
  %36 = load ptr, ptr %35, align 8, !tbaa !100
  %37 = load i32, ptr %36, align 4, !tbaa !8
  %38 = icmp eq i32 %37, -558043679
  br i1 %38, label %39, label %50

39:                                               ; preds = %33
  %40 = load ptr, ptr %3, align 8, !tbaa !98
  %41 = getelementptr inbounds nuw %struct.ManagedDictionary, ptr %40, i32 0, i32 1
  %42 = load ptr, ptr %3, align 8, !tbaa !98
  %43 = getelementptr inbounds nuw %struct.ManagedDictionary, ptr %42, i32 0, i32 2
  %44 = load ptr, ptr %43, align 8, !tbaa !100
  call void @BrotliCleanupSharedEncoderDictionary(ptr noundef %41, ptr noundef %44)
  %45 = load ptr, ptr %3, align 8, !tbaa !98
  %46 = getelementptr inbounds nuw %struct.ManagedDictionary, ptr %45, i32 0, i32 1
  %47 = load ptr, ptr %3, align 8, !tbaa !98
  %48 = getelementptr inbounds nuw %struct.ManagedDictionary, ptr %47, i32 0, i32 2
  %49 = load ptr, ptr %48, align 8, !tbaa !100
  call void @BrotliFree(ptr noundef %46, ptr noundef %49)
  br label %51

50:                                               ; preds = %33
  br label %51

51:                                               ; preds = %50, %39
  br label %52

52:                                               ; preds = %51, %27
  br label %53

53:                                               ; preds = %52, %20
  %54 = load ptr, ptr %3, align 8, !tbaa !98
  %55 = getelementptr inbounds nuw %struct.ManagedDictionary, ptr %54, i32 0, i32 2
  store ptr null, ptr %55, align 8, !tbaa !100
  %56 = load ptr, ptr %3, align 8, !tbaa !98
  call void @BrotliDestroyManagedDictionary(ptr noundef %56)
  store i32 0, ptr %4, align 4
  br label %57

57:                                               ; preds = %53, %14, %8
  call void @llvm.lifetime.end.p0(i64 8, ptr %3) #10
  %58 = load i32, ptr %4, align 4
  switch i32 %58, label %60 [
    i32 0, label %59
    i32 1, label %59
  ]

59:                                               ; preds = %57, %57
  ret void

60:                                               ; preds = %57
  unreachable
}