; Function Attrs: nounwind uwtable
define void @BrotliEncoderDestroyPreparedDictionary(ptr noundef %0) local_unnamed_addr #1 {
  %.not = icmp eq ptr %0, null
  br i1 %.not, label %16, label %2

2:                                                ; preds = %1
  %3 = load i32, ptr %0, align 8, !tbaa !604
  %.not16 = icmp eq i32 %3, -558043678
  br i1 %.not16, label %4, label %16

4:                                                ; preds = %2
  %5 = getelementptr inbounds nuw i8, ptr %0, i64 32
  %6 = load ptr, ptr %5, align 8, !tbaa !602
  %7 = icmp eq ptr %6, null
  br i1 %7, label %15, label %8

8:                                                ; preds = %4
  %9 = load i32, ptr %6, align 4, !tbaa !59
  switch i32 %9, label %15 [
    i32 -558043677, label %10
    i32 -558043679, label %12
  ]

10:                                               ; preds = %8
  %11 = getelementptr inbounds nuw i8, ptr %0, i64 8
  tail call void @DestroyPreparedDictionary(ptr noundef nonnull %11, ptr noundef nonnull %6) #18
  br label %15

12:                                               ; preds = %8
  %13 = getelementptr inbounds nuw i8, ptr %0, i64 8
  tail call void @BrotliCleanupSharedEncoderDictionary(ptr noundef nonnull %13, ptr noundef nonnull %6) #18
  %14 = load ptr, ptr %5, align 8, !tbaa !602
  tail call void @BrotliFree(ptr noundef nonnull %13, ptr noundef %14) #18
  br label %15

15:                                               ; preds = %8, %10, %12, %4
  store ptr null, ptr %5, align 8, !tbaa !602
  tail call void @BrotliDestroyManagedDictionary(ptr noundef nonnull %0) #18
  br label %16

16:                                               ; preds = %2, %1, %15
  ret void
}